	.section	__TEXT,__text,regular,pure_instructions
	.build_version macos, 10, 15	sdk_version 10, 15, 4
	.globl	_bench_time_sub         ## -- Begin function bench_time_sub
	.p2align	4, 0x90
_bench_time_sub:                        ## @bench_time_sub
Lfunc_begin0:
	.file	1 "/Users/sandermertens/GitHub/SanderMertens/flecs-projects/ecs_benchmark/bench_common" "./src/main.c"
	.loc	1 11 0                  ## ./src/main.c:11:0
	.cfi_startproc
## %bb.0:
	pushq	%rbp
	.cfi_def_cfa_offset 16
	.cfi_offset %rbp, -16
	movq	%rsp, %rbp
	.cfi_def_cfa_register %rbp
	movq	%rdi, -32(%rbp)
	movq	%rsi, -24(%rbp)
	movq	%rdx, -48(%rbp)
	movq	%rcx, -40(%rbp)
Ltmp0:
	.loc	1 13 12 prologue_end    ## ./src/main.c:13:12
	movq	-24(%rbp), %rax
	.loc	1 13 20 is_stmt 0       ## ./src/main.c:13:20
	cmpq	-40(%rbp), %rax
Ltmp1:
	.loc	1 13 9                  ## ./src/main.c:13:9
	jl	LBB0_2
## %bb.1:
Ltmp2:
	.loc	1 14 29 is_stmt 1       ## ./src/main.c:14:29
	movq	-24(%rbp), %rax
	.loc	1 14 37 is_stmt 0       ## ./src/main.c:14:37
	subq	-40(%rbp), %rax
	.loc	1 14 24                 ## ./src/main.c:14:24
	movq	%rax, -8(%rbp)
	.loc	1 15 28 is_stmt 1       ## ./src/main.c:15:28
	movq	-32(%rbp), %rax
	.loc	1 15 35 is_stmt 0       ## ./src/main.c:15:35
	subq	-48(%rbp), %rax
	.loc	1 15 23                 ## ./src/main.c:15:23
	movq	%rax, -16(%rbp)
	.loc	1 16 5 is_stmt 1        ## ./src/main.c:16:5
	jmp	LBB0_3
Ltmp3:
LBB0_2:
	.loc	1 17 29                 ## ./src/main.c:17:29
	movq	-24(%rbp), %rax
	.loc	1 17 37 is_stmt 0       ## ./src/main.c:17:37
	subq	-40(%rbp), %rax
	.loc	1 17 50                 ## ./src/main.c:17:50
	addq	$1000000000, %rax       ## imm = 0x3B9ACA00
	.loc	1 17 24                 ## ./src/main.c:17:24
	movq	%rax, -8(%rbp)
	.loc	1 18 28 is_stmt 1       ## ./src/main.c:18:28
	movq	-32(%rbp), %rax
	.loc	1 18 35 is_stmt 0       ## ./src/main.c:18:35
	subq	-48(%rbp), %rax
	.loc	1 18 47                 ## ./src/main.c:18:47
	subq	$1, %rax
	.loc	1 18 23                 ## ./src/main.c:18:23
	movq	%rax, -16(%rbp)
Ltmp4:
LBB0_3:
	.loc	1 20 5 is_stmt 1        ## ./src/main.c:20:5
	movq	-16(%rbp), %rax
	movq	-8(%rbp), %rdx
	popq	%rbp
	retq
Ltmp5:
Lfunc_end0:
	.cfi_endproc
                                        ## -- End function
	.section	__TEXT,__literal8,8byte_literals
	.p2align	3               ## -- Begin function bench_time_toDouble
LCPI1_0:
	.quad	4741671816366391296     ## double 1.0E+9
	.section	__TEXT,__text,regular,pure_instructions
	.globl	_bench_time_toDouble
	.p2align	4, 0x90
_bench_time_toDouble:                   ## @bench_time_toDouble
Lfunc_begin1:
	.loc	1 25 0                  ## ./src/main.c:25:0
	.cfi_startproc
## %bb.0:
	pushq	%rbp
	.cfi_def_cfa_offset 16
	.cfi_offset %rbp, -16
	movq	%rsp, %rbp
	.cfi_def_cfa_register %rbp
	movsd	LCPI1_0(%rip), %xmm0    ## xmm0 = mem[0],zero
	movq	%rdi, -16(%rbp)
	movq	%rsi, -8(%rbp)
Ltmp6:
	.loc	1 27 14 prologue_end    ## ./src/main.c:27:14
	cvtsi2sdq	-16(%rbp), %xmm1
	.loc	1 27 12 is_stmt 0       ## ./src/main.c:27:12
	movsd	%xmm1, -24(%rbp)
	.loc	1 28 15 is_stmt 1       ## ./src/main.c:28:15
	cvtsi2sdq	-8(%rbp), %xmm1
	.loc	1 28 33 is_stmt 0       ## ./src/main.c:28:33
	divsd	%xmm0, %xmm1
	.loc	1 28 12                 ## ./src/main.c:28:12
	addsd	-24(%rbp), %xmm1
	movsd	%xmm1, -24(%rbp)
	.loc	1 29 12 is_stmt 1       ## ./src/main.c:29:12
	movsd	-24(%rbp), %xmm0        ## xmm0 = mem[0],zero
	.loc	1 29 5 is_stmt 0        ## ./src/main.c:29:5
	popq	%rbp
	retq
Ltmp7:
Lfunc_end1:
	.cfi_endproc
                                        ## -- End function
	.globl	_bench_time_get         ## -- Begin function bench_time_get
	.p2align	4, 0x90
_bench_time_get:                        ## @bench_time_get
Lfunc_begin2:
	.loc	1 34 0 is_stmt 1        ## ./src/main.c:34:0
	.cfi_startproc
## %bb.0:
	pushq	%rbp
	.cfi_def_cfa_offset 16
	.cfi_offset %rbp, -16
	movq	%rsp, %rbp
	.cfi_def_cfa_register %rbp
	subq	$32, %rsp
	movq	%rdi, -8(%rbp)
Ltmp8:
	.loc	1 38 28 prologue_end    ## ./src/main.c:38:28
	callq	_mach_host_self
	.loc	1 38 5 is_stmt 0        ## ./src/main.c:38:5
	movl	%eax, %edi
	movl	$1, %esi
	leaq	-12(%rbp), %rdx
	callq	_host_get_clock_service
	.loc	1 39 20 is_stmt 1       ## ./src/main.c:39:20
	movl	-12(%rbp), %edi
	.loc	1 39 5 is_stmt 0        ## ./src/main.c:39:5
	leaq	-24(%rbp), %rsi
	movl	%eax, -28(%rbp)         ## 4-byte Spill
	callq	_clock_get_time
	movq	_mach_task_self_@GOTPCREL(%rip), %rcx
	.loc	1 40 26 is_stmt 1       ## ./src/main.c:40:26
	movl	(%rcx), %edi
	.loc	1 40 44 is_stmt 0       ## ./src/main.c:40:44
	movl	-12(%rbp), %esi
	movl	%eax, -32(%rbp)         ## 4-byte Spill
	.loc	1 40 5                  ## ./src/main.c:40:5
	callq	_mach_port_deallocate
	.loc	1 41 20 is_stmt 1       ## ./src/main.c:41:20
	movl	-24(%rbp), %esi
	movl	%esi, %ecx
	.loc	1 41 5 is_stmt 0        ## ./src/main.c:41:5
	movq	-8(%rbp), %rdx
	.loc	1 41 18                 ## ./src/main.c:41:18
	movq	%rcx, (%rdx)
	.loc	1 42 21 is_stmt 1       ## ./src/main.c:42:21
	movslq	-20(%rbp), %rcx
	.loc	1 42 5 is_stmt 0        ## ./src/main.c:42:5
	movq	-8(%rbp), %rdx
	.loc	1 42 19                 ## ./src/main.c:42:19
	movq	%rcx, 8(%rdx)
	.loc	1 48 1 is_stmt 1        ## ./src/main.c:48:1
	addq	$32, %rsp
	popq	%rbp
	retq
Ltmp9:
Lfunc_end2:
	.cfi_endproc
                                        ## -- End function
	.globl	_bench_time_measure     ## -- Begin function bench_time_measure
	.p2align	4, 0x90
_bench_time_measure:                    ## @bench_time_measure
Lfunc_begin3:
	.loc	1 52 0                  ## ./src/main.c:52:0
	.cfi_startproc
## %bb.0:
	pushq	%rbp
	.cfi_def_cfa_offset 16
	.cfi_offset %rbp, -16
	movq	%rsp, %rbp
	.cfi_def_cfa_register %rbp
	subq	$64, %rsp
	movq	%rdi, -8(%rbp)
Ltmp10:
	.loc	1 54 5 prologue_end     ## ./src/main.c:54:5
	leaq	-24(%rbp), %rdi
Ltmp11:
	##DEBUG_VALUE: bench_time_measure:stop <- [$rdi+0]
	callq	_bench_time_get
Ltmp12:
	.loc	1 55 12                 ## ./src/main.c:55:12
	movq	-24(%rbp), %rax
	movq	%rax, -40(%rbp)
	movq	-16(%rbp), %rax
	movq	%rax, -32(%rbp)
	.loc	1 56 34                 ## ./src/main.c:56:34
	movq	-8(%rbp), %rax
	.loc	1 56 12 is_stmt 0       ## ./src/main.c:56:12
	movq	-24(%rbp), %rdi
	movq	-16(%rbp), %rsi
	movq	(%rax), %rdx
	movq	8(%rax), %rcx
	callq	_bench_time_sub
	movq	%rax, -56(%rbp)
	movq	%rdx, -48(%rbp)
	movq	-56(%rbp), %rax
	movq	%rax, -24(%rbp)
	movq	-48(%rbp), %rax
	movq	%rax, -16(%rbp)
	.loc	1 57 6 is_stmt 1        ## ./src/main.c:57:6
	movq	-8(%rbp), %rax
	.loc	1 57 14 is_stmt 0       ## ./src/main.c:57:14
	movq	-40(%rbp), %rcx
	movq	%rcx, (%rax)
	movq	-32(%rbp), %rcx
	movq	%rcx, 8(%rax)
	.loc	1 58 12 is_stmt 1       ## ./src/main.c:58:12
	movq	-24(%rbp), %rdi
	movq	-16(%rbp), %rsi
	callq	_bench_time_toDouble
	.loc	1 58 5 is_stmt 0        ## ./src/main.c:58:5
	addq	$64, %rsp
	popq	%rbp
	retq
Ltmp13:
Lfunc_end3:
	.cfi_endproc
                                        ## -- End function
	.file	2 "/Library/Developer/CommandLineTools/SDKs/MacOSX.sdk/usr/include/i386" "_types.h"
	.file	3 "/Library/Developer/CommandLineTools/SDKs/MacOSX.sdk/usr/include/sys/_types" "_timespec.h"
	.file	4 "/Users/sandermertens/GitHub/SanderMertens/flecs-projects/ecs_benchmark/bench_common" "./include/bench_common.h"
	.file	5 "/Library/Developer/CommandLineTools/SDKs/MacOSX.sdk/usr/include/sys" "_types.h"
	.file	6 "/Library/Developer/CommandLineTools/SDKs/MacOSX.sdk/usr/include/sys/_types" "_mach_port_t.h"
	.file	7 "/Library/Developer/CommandLineTools/SDKs/MacOSX.sdk/usr/include/mach" "mach_types.h"
	.file	8 "/Library/Developer/CommandLineTools/SDKs/MacOSX.sdk/usr/include/mach" "clock_types.h"